; Function Attrs: mustprogress uwtable
define dso_local void @_ZN4absl12Notification6NotifyEv(ptr noundef nonnull align 8 dereferenceable(9) %0) local_unnamed_addr #0 align 2 personality ptr @__gxx_personality_v0 {
  tail call void @AbslInternalTraceSignal(ptr noundef nonnull %0, i32 noundef 2)
  tail call void @_ZN4absl5Mutex4LockEv(ptr noundef nonnull align 8 dereferenceable(8) %0)
  %2 = getelementptr inbounds nuw i8, ptr %0, i64 8
  store atomic i8 1, ptr %2 release, align 8
  invoke void @_ZN4absl5Mutex6UnlockEv(ptr noundef nonnull align 8 dereferenceable(8) %0)
          to label %_ZN4absl9MutexLockD2Ev.exit unwind label %3

3:                                                ; preds = %1
  %4 = landingpad { ptr, i32 }
          catch ptr null
  %5 = extractvalue { ptr, i32 } %4, 0
  tail call void @__clang_call_terminate(ptr %5) #7
  unreachable

_ZN4absl9MutexLockD2Ev.exit:                      ; preds = %1
  ret void
}